; ModuleID = '64/3314.c'
source_filename = "64/3314.c"
target datalayout = "e-m:e-p270:32:32-p271:32:32-p272:64:64-i64:64-f80:128-n8:16:32:64-S128"
target triple = "x86_64-pc-linux-gnu"

@.str = private unnamed_addr constant [3 x i8] c"%d\00", align 1
@.str.1 = private unnamed_addr constant [7 x i8] c"%d%d%d\00", align 1
@.str.2 = private unnamed_addr constant [29 x i8] c"(%d,%d,%d)-(%d,%d,%d)=%.2lf\0A\00", align 1

; Function Attrs: noinline nounwind uwtable
define dso_local i32 @main() #0 {
  %1 = alloca i32, align 4
  %2 = alloca i32, align 4
  %3 = alloca i32, align 4
  %4 = alloca i32, align 4
  %5 = alloca i32, align 4
  %6 = alloca i32, align 4
  %7 = alloca i32, align 4
  %8 = alloca i32, align 4
  %9 = alloca [10 x i32], align 16
  %10 = alloca [10 x i32], align 16
  %11 = alloca [10 x i32], align 16
  %12 = alloca [50 x i32], align 16
  %13 = alloca [50 x i32], align 16
  %14 = alloca [50 x double], align 16
  %15 = alloca double, align 8
  store i32 0, i32* %1, align 4
  %16 = call i32 (i8*, ...) @__isoc99_scanf(i8* getelementptr inbounds ([3 x i8], [3 x i8]* @.str, i64 0, i64 0), i32* %5)
  store i32 1, i32* %2, align 4
  br label %17

17:                                               ; preds = %32, %0
  %18 = load i32, i32* %2, align 4
  %19 = load i32, i32* %5, align 4
  %20 = icmp sle i32 %18, %19
  br i1 %20, label %21, label %35

21:                                               ; preds = %17
  %22 = load i32, i32* %2, align 4
  %23 = sext i32 %22 to i64
  %24 = getelementptr inbounds [10 x i32], [10 x i32]* %9, i64 0, i64 %23
  %25 = load i32, i32* %2, align 4
  %26 = sext i32 %25 to i64
  %27 = getelementptr inbounds [10 x i32], [10 x i32]* %10, i64 0, i64 %26
  %28 = load i32, i32* %2, align 4
  %29 = sext i32 %28 to i64
  %30 = getelementptr inbounds [10 x i32], [10 x i32]* %11, i64 0, i64 %29
  %31 = call i32 (i8*, ...) @__isoc99_scanf(i8* getelementptr inbounds ([7 x i8], [7 x i8]* @.str.1, i64 0, i64 0), i32* %24, i32* %27, i32* %30)
  br label %32

32:                                               ; preds = %21
  %33 = load i32, i32* %2, align 4
  %34 = add nsw i32 %33, 1
  store i32 %34, i32* %2, align 4
  br label %17

35:                                               ; preds = %17
  store i32 1, i32* %2, align 4
  store i32 0, i32* %4, align 4
  br label %36

36:                                               ; preds = %126, %35
  %37 = load i32, i32* %2, align 4
  %38 = load i32, i32* %5, align 4
  %39 = icmp slt i32 %37, %38
  br i1 %39, label %40, label %129

40:                                               ; preds = %36
  %41 = load i32, i32* %2, align 4
  %42 = add nsw i32 %41, 1
  store i32 %42, i32* %3, align 4
  br label %43

43:                                               ; preds = %122, %40
  %44 = load i32, i32* %3, align 4
  %45 = load i32, i32* %5, align 4
  %46 = icmp sle i32 %44, %45
  br i1 %46, label %47, label %125

47:                                               ; preds = %43
  %48 = load i32, i32* %4, align 4
  %49 = add nsw i32 %48, 1
  store i32 %49, i32* %4, align 4
  %50 = load i32, i32* %2, align 4
  %51 = sext i32 %50 to i64
  %52 = getelementptr inbounds [10 x i32], [10 x i32]* %9, i64 0, i64 %51
  %53 = load i32, i32* %52, align 4
  %54 = load i32, i32* %3, align 4
  %55 = sext i32 %54 to i64
  %56 = getelementptr inbounds [10 x i32], [10 x i32]* %9, i64 0, i64 %55
  %57 = load i32, i32* %56, align 4
  %58 = sub nsw i32 %53, %57
  %59 = load i32, i32* %2, align 4
  %60 = sext i32 %59 to i64
  %61 = getelementptr inbounds [10 x i32], [10 x i32]* %9, i64 0, i64 %60
  %62 = load i32, i32* %61, align 4
  %63 = load i32, i32* %3, align 4
  %64 = sext i32 %63 to i64
  %65 = getelementptr inbounds [10 x i32], [10 x i32]* %9, i64 0, i64 %64
  %66 = load i32, i32* %65, align 4
  %67 = sub nsw i32 %62, %66
  %68 = mul nsw i32 %58, %67
  %69 = load i32, i32* %2, align 4
  %70 = sext i32 %69 to i64
  %71 = getelementptr inbounds [10 x i32], [10 x i32]* %10, i64 0, i64 %70
  %72 = load i32, i32* %71, align 4
  %73 = load i32, i32* %3, align 4
  %74 = sext i32 %73 to i64
  %75 = getelementptr inbounds [10 x i32], [10 x i32]* %10, i64 0, i64 %74
  %76 = load i32, i32* %75, align 4
  %77 = sub nsw i32 %72, %76
  %78 = load i32, i32* %2, align 4
  %79 = sext i32 %78 to i64
  %80 = getelementptr inbounds [10 x i32], [10 x i32]* %10, i64 0, i64 %79
  %81 = load i32, i32* %80, align 4
  %82 = load i32, i32* %3, align 4
  %83 = sext i32 %82 to i64
  %84 = getelementptr inbounds [10 x i32], [10 x i32]* %10, i64 0, i64 %83
  %85 = load i32, i32* %84, align 4
  %86 = sub nsw i32 %81, %85
  %87 = mul nsw i32 %77, %86
  %88 = add nsw i32 %68, %87
  %89 = load i32, i32* %2, align 4
  %90 = sext i32 %89 to i64
  %91 = getelementptr inbounds [10 x i32], [10 x i32]* %11, i64 0, i64 %90
  %92 = load i32, i32* %91, align 4
  %93 = load i32, i32* %3, align 4
  %94 = sext i32 %93 to i64
  %95 = getelementptr inbounds [10 x i32], [10 x i32]* %11, i64 0, i64 %94
  %96 = load i32, i32* %95, align 4
  %97 = sub nsw i32 %92, %96
  %98 = load i32, i32* %2, align 4
  %99 = sext i32 %98 to i64
  %100 = getelementptr inbounds [10 x i32], [10 x i32]* %11, i64 0, i64 %99
  %101 = load i32, i32* %100, align 4
  %102 = load i32, i32* %3, align 4
  %103 = sext i32 %102 to i64
  %104 = getelementptr inbounds [10 x i32], [10 x i32]* %11, i64 0, i64 %103
  %105 = load i32, i32* %104, align 4
  %106 = sub nsw i32 %101, %105
  %107 = mul nsw i32 %97, %106
  %108 = add nsw i32 %88, %107
  %109 = sitofp i32 %108 to double
  %110 = call double @sqrt(double %109) #3
  %111 = load i32, i32* %4, align 4
  %112 = sext i32 %111 to i64
  %113 = getelementptr inbounds [50 x double], [50 x double]* %14, i64 0, i64 %112
  store double %110, double* %113, align 8
  %114 = load i32, i32* %2, align 4
  %115 = load i32, i32* %4, align 4
  %116 = sext i32 %115 to i64
  %117 = getelementptr inbounds [50 x i32], [50 x i32]* %12, i64 0, i64 %116
  store i32 %114, i32* %117, align 4
  %118 = load i32, i32* %3, align 4
  %119 = load i32, i32* %4, align 4
  %120 = sext i32 %119 to i64
  %121 = getelementptr inbounds [50 x i32], [50 x i32]* %13, i64 0, i64 %120
  store i32 %118, i32* %121, align 4
  br label %122

122:                                              ; preds = %47
  %123 = load i32, i32* %3, align 4
  %124 = add nsw i32 %123, 1
  store i32 %124, i32* %3, align 4
  br label %43

125:                                              ; preds = %43
  br label %126

126:                                              ; preds = %125
  %127 = load i32, i32* %2, align 4
  %128 = add nsw i32 %127, 1
  store i32 %128, i32* %2, align 4
  br label %36

129:                                              ; preds = %36
  store i32 1, i32* %2, align 4
  br label %130

130:                                              ; preds = %209, %129
  %131 = load i32, i32* %2, align 4
  %132 = load i32, i32* %4, align 4
  %133 = icmp sle i32 %131, %132
  br i1 %133, label %134, label %212

134:                                              ; preds = %130
  store i32 1, i32* %3, align 4
  br label %135

135:                                              ; preds = %205, %134
  %136 = load i32, i32* %3, align 4
  %137 = load i32, i32* %4, align 4
  %138 = load i32, i32* %2, align 4
  %139 = sub nsw i32 %137, %138
  %140 = icmp sle i32 %136, %139
  br i1 %140, label %141, label %208

141:                                              ; preds = %135
  %142 = load i32, i32* %3, align 4
  %143 = sext i32 %142 to i64
  %144 = getelementptr inbounds [50 x double], [50 x double]* %14, i64 0, i64 %143
  %145 = load double, double* %144, align 8
  %146 = load i32, i32* %3, align 4
  %147 = add nsw i32 %146, 1
  %148 = sext i32 %147 to i64
  %149 = getelementptr inbounds [50 x double], [50 x double]* %14, i64 0, i64 %148
  %150 = load double, double* %149, align 8
  %151 = fcmp olt double %145, %150
  br i1 %151, label %152, label %204

152:                                              ; preds = %141
  %153 = load i32, i32* %3, align 4
  %154 = sext i32 %153 to i64
  %155 = getelementptr inbounds [50 x double], [50 x double]* %14, i64 0, i64 %154
  %156 = load double, double* %155, align 8
  store double %156, double* %15, align 8
  %157 = load i32, i32* %3, align 4
  %158 = add nsw i32 %157, 1
  %159 = sext i32 %158 to i64
  %160 = getelementptr inbounds [50 x double], [50 x double]* %14, i64 0, i64 %159
  %161 = load double, double* %160, align 8
  %162 = load i32, i32* %3, align 4
  %163 = sext i32 %162 to i64
  %164 = getelementptr inbounds [50 x double], [50 x double]* %14, i64 0, i64 %163
  store double %161, double* %164, align 8
  %165 = load double, double* %15, align 8
  %166 = load i32, i32* %3, align 4
  %167 = add nsw i32 %166, 1
  %168 = sext i32 %167 to i64
  %169 = getelementptr inbounds [50 x double], [50 x double]* %14, i64 0, i64 %168
  store double %165, double* %169, align 8
  %170 = load i32, i32* %3, align 4
  %171 = sext i32 %170 to i64
  %172 = getelementptr inbounds [50 x i32], [50 x i32]* %12, i64 0, i64 %171
  %173 = load i32, i32* %172, align 4
  store i32 %173, i32* %6, align 4
  %174 = load i32, i32* %3, align 4
  %175 = add nsw i32 %174, 1
  %176 = sext i32 %175 to i64
  %177 = getelementptr inbounds [50 x i32], [50 x i32]* %12, i64 0, i64 %176
  %178 = load i32, i32* %177, align 4
  %179 = load i32, i32* %3, align 4
  %180 = sext i32 %179 to i64
  %181 = getelementptr inbounds [50 x i32], [50 x i32]* %12, i64 0, i64 %180
  store i32 %178, i32* %181, align 4
  %182 = load i32, i32* %6, align 4
  %183 = load i32, i32* %3, align 4
  %184 = add nsw i32 %183, 1
  %185 = sext i32 %184 to i64
  %186 = getelementptr inbounds [50 x i32], [50 x i32]* %12, i64 0, i64 %185
  store i32 %182, i32* %186, align 4
  %187 = load i32, i32* %3, align 4
  %188 = sext i32 %187 to i64
  %189 = getelementptr inbounds [50 x i32], [50 x i32]* %13, i64 0, i64 %188
  %190 = load i32, i32* %189, align 4
  store i32 %190, i32* %7, align 4
  %191 = load i32, i32* %3, align 4
  %192 = add nsw i32 %191, 1
  %193 = sext i32 %192 to i64
  %194 = getelementptr inbounds [50 x i32], [50 x i32]* %13, i64 0, i64 %193
  %195 = load i32, i32* %194, align 4
  %196 = load i32, i32* %3, align 4
  %197 = sext i32 %196 to i64
  %198 = getelementptr inbounds [50 x i32], [50 x i32]* %13, i64 0, i64 %197
  store i32 %195, i32* %198, align 4
  %199 = load i32, i32* %7, align 4
  %200 = load i32, i32* %3, align 4
  %201 = add nsw i32 %200, 1
  %202 = sext i32 %201 to i64
  %203 = getelementptr inbounds [50 x i32], [50 x i32]* %13, i64 0, i64 %202
  store i32 %199, i32* %203, align 4
  br label %204

204:                                              ; preds = %152, %141
  br label %205

205:                                              ; preds = %204
  %206 = load i32, i32* %3, align 4
  %207 = add nsw i32 %206, 1
  store i32 %207, i32* %3, align 4
  br label %135

208:                                              ; preds = %135
  br label %209

209:                                              ; preds = %208
  %210 = load i32, i32* %2, align 4
  %211 = add nsw i32 %210, 1
  store i32 %211, i32* %2, align 4
  br label %130

212:                                              ; preds = %130
  store i32 1, i32* %2, align 4
  br label %213

213:                                              ; preds = %255, %212
  %214 = load i32, i32* %2, align 4
  %215 = load i32, i32* %4, align 4
  %216 = icmp sle i32 %214, %215
  br i1 %216, label %217, label %258

217:                                              ; preds = %213
  %218 = load i32, i32* %2, align 4
  %219 = sext i32 %218 to i64
  %220 = getelementptr inbounds [50 x i32], [50 x i32]* %12, i64 0, i64 %219
  %221 = load i32, i32* %220, align 4
  store i32 %221, i32* %6, align 4
  %222 = load i32, i32* %2, align 4
  %223 = sext i32 %222 to i64
  %224 = getelementptr inbounds [50 x i32], [50 x i32]* %13, i64 0, i64 %223
  %225 = load i32, i32* %224, align 4
  store i32 %225, i32* %7, align 4
  %226 = load i32, i32* %6, align 4
  %227 = sext i32 %226 to i64
  %228 = getelementptr inbounds [10 x i32], [10 x i32]* %9, i64 0, i64 %227
  %229 = load i32, i32* %228, align 4
  %230 = load i32, i32* %6, align 4
  %231 = sext i32 %230 to i64
  %232 = getelementptr inbounds [10 x i32], [10 x i32]* %10, i64 0, i64 %231
  %233 = load i32, i32* %232, align 4
  %234 = load i32, i32* %6, align 4
  %235 = sext i32 %234 to i64
  %236 = getelementptr inbounds [10 x i32], [10 x i32]* %11, i64 0, i64 %235
  %237 = load i32, i32* %236, align 4
  %238 = load i32, i32* %7, align 4
  %239 = sext i32 %238 to i64
  %240 = getelementptr inbounds [10 x i32], [10 x i32]* %9, i64 0, i64 %239
  %241 = load i32, i32* %240, align 4
  %242 = load i32, i32* %7, align 4
  %243 = sext i32 %242 to i64
  %244 = getelementptr inbounds [10 x i32], [10 x i32]* %10, i64 0, i64 %243
  %245 = load i32, i32* %244, align 4
  %246 = load i32, i32* %7, align 4
  %247 = sext i32 %246 to i64
  %248 = getelementptr inbounds [10 x i32], [10 x i32]* %11, i64 0, i64 %247
  %249 = load i32, i32* %248, align 4
  %250 = load i32, i32* %2, align 4
  %251 = sext i32 %250 to i64
  %252 = getelementptr inbounds [50 x double], [50 x double]* %14, i64 0, i64 %251
  %253 = load double, double* %252, align 8
  %254 = call i32 (i8*, ...) @printf(i8* getelementptr inbounds ([29 x i8], [29 x i8]* @.str.2, i64 0, i64 0), i32 %229, i32 %233, i32 %237, i32 %241, i32 %245, i32 %249, double %253)
  br label %255

255:                                              ; preds = %217
  %256 = load i32, i32* %2, align 4
  %257 = add nsw i32 %256, 1
  store i32 %257, i32* %2, align 4
  br label %213

258:                                              ; preds = %213
  ret i32 0
}

declare dso_local i32 @__isoc99_scanf(i8*, ...) #1

; Function Attrs: nounwind
declare dso_local double @sqrt(double) #2

declare dso_local i32 @printf(i8*, ...) #1


!llvm.module.flags = !{!0}
!llvm.ident = !{!1}

!0 = !{i32 1, !"wchar_size", i32 4}
!1 = !{!"clang version 10.0.0-4ubuntu1 "}
